target datalayout = "e-m:e-p270:32:32-p271:32:32-p272:64:64-i64:64-i128:128-f80:128-n8:16:32:64-S128"
target triple = "x86_64-pc-linux-gnu"

; Function Attrs: mustprogress nounwind uwtable
define dso_local noundef double @_ZN5cmsys31SystemInformationImplementation14GetLoadAverageEv(ptr noundef nonnull align 8 dereferenceable(457) %0) #7 align 2 {
  %2 = alloca double, align 8
  %3 = alloca ptr, align 8
  %4 = alloca [3 x double], align 16
  %5 = alloca i32, align 4
  store ptr %0, ptr %3, align 8, !tbaa !12
  call void @llvm.lifetime.start.p0(i64 24, ptr %4) #3
  call void @llvm.memset.p0.i64(ptr align 16 %4, i8 0, i64 24, i1 false)
  %6 = getelementptr inbounds [3 x double], ptr %4, i64 0, i64 0
  %7 = call i32 @getloadavg(ptr noundef %6, i32 noundef 3) #3
  %8 = icmp sgt i32 %7, 0
  br i1 %8, label %9, label %12

9:                                                ; preds = %1
  %10 = getelementptr inbounds [3 x double], ptr %4, i64 0, i64 0
  %11 = load double, ptr %10, align 16, !tbaa !98
  store double %11, ptr %2, align 8
  store i32 1, ptr %5, align 4
  br label %13

12:                                               ; preds = %1
  store double -0.000000e+00, ptr %2, align 8
  store i32 1, ptr %5, align 4
  br label %13

13:                                               ; preds = %12, %9
  call void @llvm.lifetime.end.p0(i64 24, ptr %4) #3
  %14 = load double, ptr %2, align 8
  ret double %14
}