; Function Attrs: mustprogress nounwind uwtable
define dso_local noundef double @_ZN5cmsys31SystemInformationImplementation14GetLoadAverageEv(ptr noundef nonnull readnone align 8 captures(none) dereferenceable(457) %0) local_unnamed_addr #6 align 2 {
  %2 = alloca [3 x double], align 16
  call void @llvm.lifetime.start.p0(i64 24, ptr nonnull %2) #34
  call void @llvm.memset.p0.i64(ptr noundef nonnull align 16 dereferenceable(24) %2, i8 0, i64 24, i1 false)
  %3 = call i32 @getloadavg(ptr noundef nonnull %2, i32 noundef 3) #34
  %4 = icmp sgt i32 %3, 0
  %5 = load double, ptr %2, align 16
  %.0 = select i1 %4, double %5, double -0.000000e+00
  call void @llvm.lifetime.end.p0(i64 24, ptr nonnull %2) #34
  ret double %.0
}